target datalayout = "e-m:e-p270:32:32-p271:32:32-p272:64:64-i64:64-i128:128-f80:128-n8:16:32:64-S128"
target triple = "x86_64-unknown-linux-gnu"

%class.grobner = type <{ %struct.grobner_stats, ptr, ptr, %class.arith_util, %class.obj_map, %"struct.grobner::var_lt", %"struct.grobner::monomial_lt", %class.obj_hashtable, %class.obj_hashtable, %class.ptr_vector, %class.ptr_vector, i8, [7 x i8], ptr, %class.svector, %class.ptr_vector.3, %class.ptr_vector.3, %class.ptr_vector.5, %class.ptr_vector.5, i32, [4 x i8] }>
%struct.grobner_stats = type { i64, i64, i64, i64 }
%class.arith_util = type { ptr, ptr }
%class.obj_map = type { %class.core_hashtable }
%class.core_hashtable = type <{ ptr, i32, i32, i32, [4 x i8] }>
%"struct.grobner::var_lt" = type { ptr }
%"struct.grobner::monomial_lt" = type { ptr }
%class.obj_hashtable = type { %class.core_hashtable.base.1, [4 x i8] }
%class.core_hashtable.base.1 = type <{ ptr, i32, i32, i32 }>
%class.ptr_vector = type { %class.vector }
%class.vector = type { ptr }
%class.svector = type { %class.vector.2 }
%class.vector.2 = type { ptr }
%class.ptr_vector.3 = type { %class.vector.4 }
%class.vector.4 = type { ptr }
%class.ptr_vector.5 = type { %class.vector.6 }
%class.vector.6 = type { ptr }
%"class.grobner::monomial" = type { %class.rational, %class.ptr_vector.5 }
%class.rational = type { %class.mpq }
%class.mpq = type { %class.mpz, %class.mpz }
%class.mpz = type { i32, i8, ptr }

; Function Attrs: mustprogress uwtable
define linkonce_odr hidden noundef nonnull align 8 dereferenceable(8) ptr @_ZN6vectorIP4exprLb0EjE9push_backERKS1_(ptr noundef nonnull align 8 dereferenceable(8) %this, ptr noundef nonnull align 8 dereferenceable(8) %elem) #4 comdat align 2 {
entry:
  %this.addr = alloca ptr, align 8
  %elem.addr = alloca ptr, align 8
  store ptr %this, ptr %this.addr, align 8
  store ptr %elem, ptr %elem.addr, align 8
  %this1 = load ptr, ptr %this.addr, align 8
  %m_data = getelementptr inbounds %class.vector.6, ptr %this1, i32 0, i32 0
  %0 = load ptr, ptr %m_data, align 8
  %cmp = icmp eq ptr %0, null
  br i1 %cmp, label %if.then, label %lor.lhs.false

lor.lhs.false:                                    ; preds = %entry
  %m_data2 = getelementptr inbounds %class.vector.6, ptr %this1, i32 0, i32 0
  %1 = load ptr, ptr %m_data2, align 8
  %arrayidx = getelementptr inbounds i32, ptr %1, i64 -1
  %2 = load i32, ptr %arrayidx, align 4
  %m_data3 = getelementptr inbounds %class.vector.6, ptr %this1, i32 0, i32 0
  %3 = load ptr, ptr %m_data3, align 8
  %arrayidx4 = getelementptr inbounds i32, ptr %3, i64 -2
  %4 = load i32, ptr %arrayidx4, align 4
  %cmp5 = icmp eq i32 %2, %4
  br i1 %cmp5, label %if.then, label %if.end

if.then:                                          ; preds = %lor.lhs.false, %entry
  call void @_ZN6vectorIP4exprLb0EjE13expand_vectorEv(ptr noundef nonnull align 8 dereferenceable(8) %this1)
  br label %if.end

if.end:                                           ; preds = %if.then, %lor.lhs.false
  %m_data6 = getelementptr inbounds %class.vector.6, ptr %this1, i32 0, i32 0
  %5 = load ptr, ptr %m_data6, align 8
  %m_data7 = getelementptr inbounds %class.vector.6, ptr %this1, i32 0, i32 0
  %6 = load ptr, ptr %m_data7, align 8
  %arrayidx8 = getelementptr inbounds i32, ptr %6, i64 -1
  %7 = load i32, ptr %arrayidx8, align 4
  %idx.ext = zext i32 %7 to i64
  %add.ptr = getelementptr inbounds ptr, ptr %5, i64 %idx.ext
  %8 = load ptr, ptr %elem.addr, align 8
  %9 = load ptr, ptr %8, align 8
  store ptr %9, ptr %add.ptr, align 8
  %m_data9 = getelementptr inbounds %class.vector.6, ptr %this1, i32 0, i32 0
  %10 = load ptr, ptr %m_data9, align 8
  %arrayidx10 = getelementptr inbounds i32, ptr %10, i64 -1
  %11 = load i32, ptr %arrayidx10, align 4
  %inc = add i32 %11, 1
  store i32 %inc, ptr %arrayidx10, align 4
  ret ptr %this1
}

; Function Attrs: mustprogress nounwind uwtable
define linkonce_odr hidden noundef nonnull align 8 dereferenceable(8) ptr @_ZNK6vectorIP4exprLb0EjEixEj(ptr noundef nonnull align 8 dereferenceable(8) %this, i32 noundef %idx) #5 comdat align 2 {
entry:
  %this.addr = alloca ptr, align 8
  %idx.addr = alloca i32, align 4
  store ptr %this, ptr %this.addr, align 8
  store i32 %idx, ptr %idx.addr, align 4
  %this1 = load ptr, ptr %this.addr, align 8
  %m_data = getelementptr inbounds %class.vector.6, ptr %this1, i32 0, i32 0
  %0 = load ptr, ptr %m_data, align 8
  %1 = load i32, ptr %idx.addr, align 4
  %idxprom = zext i32 %1 to i64
  %arrayidx = getelementptr inbounds ptr, ptr %0, i64 %idxprom
  ret ptr %arrayidx
}

; Function Attrs: mustprogress nounwind uwtable
define linkonce_odr hidden noundef i32 @_ZNK6vectorIP4exprLb0EjE4sizeEv(ptr noundef nonnull align 8 dereferenceable(8) %this) #5 comdat align 2 {
entry:
  %retval = alloca i32, align 4
  %this.addr = alloca ptr, align 8
  store ptr %this, ptr %this.addr, align 8
  %this1 = load ptr, ptr %this.addr, align 8
  %m_data = getelementptr inbounds %class.vector.6, ptr %this1, i32 0, i32 0
  %0 = load ptr, ptr %m_data, align 8
  %cmp = icmp eq ptr %0, null
  br i1 %cmp, label %if.then, label %if.end

if.then:                                          ; preds = %entry
  store i32 0, ptr %retval, align 4
  br label %return

if.end:                                           ; preds = %entry
  %m_data2 = getelementptr inbounds %class.vector.6, ptr %this1, i32 0, i32 0
  %1 = load ptr, ptr %m_data2, align 8
  %arrayidx = getelementptr inbounds i32, ptr %1, i64 -1
  %2 = load i32, ptr %arrayidx, align 4
  store i32 %2, ptr %retval, align 4
  br label %return

return:                                           ; preds = %if.end, %if.then
  %3 = load i32, ptr %retval, align 4
  ret i32 %3
}

; Function Attrs: mustprogress uwtable
define hidden noundef zeroext i1 @_ZN7grobner5unifyEPKNS_8monomialES2_R10ptr_vectorI4exprES6_(ptr noundef nonnull align 8 dereferenceable(228) %this, ptr noundef %m1, ptr noundef %m2, ptr noundef nonnull align 8 dereferenceable(8) %rest1, ptr noundef nonnull align 8 dereferenceable(8) %rest2) #4 align 2 {
entry:
  %retval = alloca i1, align 1
  %this.addr = alloca ptr, align 8
  %m1.addr = alloca ptr, align 8
  %m2.addr = alloca ptr, align 8
  %rest1.addr = alloca ptr, align 8
  %rest2.addr = alloca ptr, align 8
  %found_M = alloca i8, align 1
  %i1 = alloca i32, align 4
  %i2 = alloca i32, align 4
  %sz1 = alloca i32, align 4
  %sz2 = alloca i32, align 4
  %var1 = alloca ptr, align 8
  %var2 = alloca ptr, align 8
  store ptr %this, ptr %this.addr, align 8
  store ptr %m1, ptr %m1.addr, align 8
  store ptr %m2, ptr %m2.addr, align 8
  store ptr %rest1, ptr %rest1.addr, align 8
  store ptr %rest2, ptr %rest2.addr, align 8
  %this1 = load ptr, ptr %this.addr, align 8
  store i8 0, ptr %found_M, align 1
  store i32 0, ptr %i1, align 4
  store i32 0, ptr %i2, align 4
  %0 = load ptr, ptr %m1.addr, align 8
  %m_vars = getelementptr inbounds %"class.grobner::monomial", ptr %0, i32 0, i32 1
  %call = call noundef i32 @_ZNK6vectorIP4exprLb0EjE4sizeEv(ptr noundef nonnull align 8 dereferenceable(8) %m_vars)
  store i32 %call, ptr %sz1, align 4
  %1 = load ptr, ptr %m2.addr, align 8
  %m_vars2 = getelementptr inbounds %"class.grobner::monomial", ptr %1, i32 0, i32 1
  %call3 = call noundef i32 @_ZNK6vectorIP4exprLb0EjE4sizeEv(ptr noundef nonnull align 8 dereferenceable(8) %m_vars2)
  store i32 %call3, ptr %sz2, align 4
  br label %while.body

while.body:                                       ; preds = %if.end41, %entry
  %2 = load i32, ptr %i1, align 4
  %3 = load i32, ptr %sz1, align 4
  %cmp = icmp uge i32 %2, %3
  br i1 %cmp, label %if.then, label %if.end9

if.then:                                          ; preds = %while.body
  %4 = load i8, ptr %found_M, align 1
  %tobool = trunc i8 %4 to i1
  br i1 %tobool, label %if.then4, label %if.end

if.then4:                                         ; preds = %if.then
  br label %for.cond

for.cond:                                         ; preds = %for.inc, %if.then4
  %5 = load i32, ptr %i2, align 4
  %6 = load i32, ptr %sz2, align 4
  %cmp5 = icmp ult i32 %5, %6
  br i1 %cmp5, label %for.body, label %for.end

for.body:                                         ; preds = %for.cond
  %7 = load ptr, ptr %rest2.addr, align 8
  %8 = load ptr, ptr %m2.addr, align 8
  %m_vars6 = getelementptr inbounds %"class.grobner::monomial", ptr %8, i32 0, i32 1
  %9 = load i32, ptr %i2, align 4
  %call7 = call noundef nonnull align 8 dereferenceable(8) ptr @_ZNK6vectorIP4exprLb0EjEixEj(ptr noundef nonnull align 8 dereferenceable(8) %m_vars6, i32 noundef %9)
  %call8 = call noundef nonnull align 8 dereferenceable(8) ptr @_ZN6vectorIP4exprLb0EjE9push_backERKS1_(ptr noundef nonnull align 8 dereferenceable(8) %7, ptr noundef nonnull align 8 dereferenceable(8) %call7)
  br label %for.inc

for.inc:                                          ; preds = %for.body
  %10 = load i32, ptr %i2, align 4
  %inc = add i32 %10, 1
  store i32 %inc, ptr %i2, align 4
  br label %for.cond, !llvm.loop !31

for.end:                                          ; preds = %for.cond
  store i1 true, ptr %retval, align 1
  br label %return

if.end:                                           ; preds = %if.then
  store i1 false, ptr %retval, align 1
  br label %return

if.end9:                                          ; preds = %while.body
  %11 = load i32, ptr %i2, align 4
  %12 = load i32, ptr %sz2, align 4
  %cmp10 = icmp uge i32 %11, %12
  br i1 %cmp10, label %if.then11, label %if.end24

if.then11:                                        ; preds = %if.end9
  %13 = load i8, ptr %found_M, align 1
  %tobool12 = trunc i8 %13 to i1
  br i1 %tobool12, label %if.then13, label %if.end23

if.then13:                                        ; preds = %if.then11
  br label %for.cond14

for.cond14:                                       ; preds = %for.inc20, %if.then13
  %14 = load i32, ptr %i1, align 4
  %15 = load i32, ptr %sz1, align 4
  %cmp15 = icmp ult i32 %14, %15
  br i1 %cmp15, label %for.body16, label %for.end22

for.body16:                                       ; preds = %for.cond14
  %16 = load ptr, ptr %rest1.addr, align 8
  %17 = load ptr, ptr %m1.addr, align 8
  %m_vars17 = getelementptr inbounds %"class.grobner::monomial", ptr %17, i32 0, i32 1
  %18 = load i32, ptr %i1, align 4
  %call18 = call noundef nonnull align 8 dereferenceable(8) ptr @_ZNK6vectorIP4exprLb0EjEixEj(ptr noundef nonnull align 8 dereferenceable(8) %m_vars17, i32 noundef %18)
  %call19 = call noundef nonnull align 8 dereferenceable(8) ptr @_ZN6vectorIP4exprLb0EjE9push_backERKS1_(ptr noundef nonnull align 8 dereferenceable(8) %16, ptr noundef nonnull align 8 dereferenceable(8) %call18)
  br label %for.inc20

for.inc20:                                        ; preds = %for.body16
  %19 = load i32, ptr %i1, align 4
  %inc21 = add i32 %19, 1
  store i32 %inc21, ptr %i1, align 4
  br label %for.cond14, !llvm.loop !32

for.end22:                                        ; preds = %for.cond14
  store i1 true, ptr %retval, align 1
  br label %return

if.end23:                                         ; preds = %if.then11
  store i1 false, ptr %retval, align 1
  br label %return

if.end24:                                         ; preds = %if.end9
  %20 = load ptr, ptr %m1.addr, align 8
  %m_vars25 = getelementptr inbounds %"class.grobner::monomial", ptr %20, i32 0, i32 1
  %21 = load i32, ptr %i1, align 4
  %call26 = call noundef nonnull align 8 dereferenceable(8) ptr @_ZNK6vectorIP4exprLb0EjEixEj(ptr noundef nonnull align 8 dereferenceable(8) %m_vars25, i32 noundef %21)
  %22 = load ptr, ptr %call26, align 8
  store ptr %22, ptr %var1, align 8
  %23 = load ptr, ptr %m2.addr, align 8
  %m_vars27 = getelementptr inbounds %"class.grobner::monomial", ptr %23, i32 0, i32 1
  %24 = load i32, ptr %i2, align 4
  %call28 = call noundef nonnull align 8 dereferenceable(8) ptr @_ZNK6vectorIP4exprLb0EjEixEj(ptr noundef nonnull align 8 dereferenceable(8) %m_vars27, i32 noundef %24)
  %25 = load ptr, ptr %call28, align 8
  store ptr %25, ptr %var2, align 8
  %26 = load ptr, ptr %var1, align 8
  %27 = load ptr, ptr %var2, align 8
  %cmp29 = icmp eq ptr %26, %27
  br i1 %cmp29, label %if.then30, label %if.else

if.then30:                                        ; preds = %if.end24
  store i8 1, ptr %found_M, align 1
  %28 = load i32, ptr %i1, align 4
  %inc31 = add i32 %28, 1
  store i32 %inc31, ptr %i1, align 4
  %29 = load i32, ptr %i2, align 4
  %inc32 = add i32 %29, 1
  store i32 %inc32, ptr %i2, align 4
  br label %if.end41

if.else:                                          ; preds = %if.end24
  %m_var_lt = getelementptr inbounds %class.grobner, ptr %this1, i32 0, i32 5
  %30 = load ptr, ptr %var2, align 8
  %31 = load ptr, ptr %var1, align 8
  %call33 = call noundef zeroext i1 @_ZNK7grobner6var_ltclEP4exprS2_(ptr noundef nonnull align 8 dereferenceable(8) %m_var_lt, ptr noundef %30, ptr noundef %31)
  br i1 %call33, label %if.then34, label %if.else37

if.then34:                                        ; preds = %if.else
  %32 = load i32, ptr %i2, align 4
  %inc35 = add i32 %32, 1
  store i32 %inc35, ptr %i2, align 4
  %33 = load ptr, ptr %rest2.addr, align 8
  %call36 = call noundef nonnull align 8 dereferenceable(8) ptr @_ZN6vectorIP4exprLb0EjE9push_backERKS1_(ptr noundef nonnull align 8 dereferenceable(8) %33, ptr noundef nonnull align 8 dereferenceable(8) %var2)
  br label %if.end40

if.else37:                                        ; preds = %if.else
  %34 = load i32, ptr %i1, align 4
  %inc38 = add i32 %34, 1
  store i32 %inc38, ptr %i1, align 4
  %35 = load ptr, ptr %rest1.addr, align 8
  %call39 = call noundef nonnull align 8 dereferenceable(8) ptr @_ZN6vectorIP4exprLb0EjE9push_backERKS1_(ptr noundef nonnull align 8 dereferenceable(8) %35, ptr noundef nonnull align 8 dereferenceable(8) %var1)
  br label %if.end40

if.end40:                                         ; preds = %if.else37, %if.then34
  br label %if.end41

if.end41:                                         ; preds = %if.end40, %if.then30
  br label %while.body, !llvm.loop !33

return:                                           ; preds = %if.end23, %for.end22, %if.end, %for.end
  %36 = load i1, ptr %retval, align 1
  ret i1 %36
}