; Function Attrs: mustprogress uwtable
define hidden noundef zeroext i1 @_ZN7grobner5unifyEPKNS_8monomialES2_R10ptr_vectorI4exprES6_(ptr nocapture noundef nonnull readonly align 8 dereferenceable(228) %this, ptr nocapture noundef readonly %m1, ptr nocapture noundef readonly %m2, ptr noundef nonnull align 8 dereferenceable(8) %rest1, ptr noundef nonnull align 8 dereferenceable(8) %rest2) local_unnamed_addr #3 align 2 {
entry:
  %m_vars = getelementptr inbounds i8, ptr %m1, i64 32
  %0 = load ptr, ptr %m_vars, align 8
  %cmp.i = icmp eq ptr %0, null
  br i1 %cmp.i, label %_ZNK6vectorIP4exprLb0EjE4sizeEv.exit, label %if.end.i

if.end.i:                                         ; preds = %entry
  %arrayidx.i = getelementptr inbounds i8, ptr %0, i64 -4
  %1 = load i32, ptr %arrayidx.i, align 4
  br label %_ZNK6vectorIP4exprLb0EjE4sizeEv.exit

_ZNK6vectorIP4exprLb0EjE4sizeEv.exit:             ; preds = %entry, %if.end.i
  %retval.0.i = phi i32 [ %1, %if.end.i ], [ 0, %entry ]
  %m_vars2 = getelementptr inbounds i8, ptr %m2, i64 32
  %2 = load ptr, ptr %m_vars2, align 8
  %cmp.i23 = icmp eq ptr %2, null
  br i1 %cmp.i23, label %_ZNK6vectorIP4exprLb0EjE4sizeEv.exit27, label %if.end.i24

if.end.i24:                                       ; preds = %_ZNK6vectorIP4exprLb0EjE4sizeEv.exit
  %arrayidx.i25 = getelementptr inbounds i8, ptr %2, i64 -4
  %3 = load i32, ptr %arrayidx.i25, align 4
  br label %_ZNK6vectorIP4exprLb0EjE4sizeEv.exit27

_ZNK6vectorIP4exprLb0EjE4sizeEv.exit27:           ; preds = %_ZNK6vectorIP4exprLb0EjE4sizeEv.exit, %if.end.i24
  %retval.0.i26 = phi i32 [ %3, %if.end.i24 ], [ 0, %_ZNK6vectorIP4exprLb0EjE4sizeEv.exit ]
  %cmp.not88.not = icmp eq i32 %retval.0.i, 0
  br i1 %cmp.not88.not, label %return, label %if.end9.lr.ph

if.end9.lr.ph:                                    ; preds = %_ZNK6vectorIP4exprLb0EjE4sizeEv.exit27
  %m_var_lt = getelementptr inbounds i8, ptr %this, i64 88
  br label %if.end9

if.then:                                          ; preds = %if.end41
  %4 = and i8 %found_M.1, 1
  %5 = icmp eq i8 %4, 0
  br i1 %5, label %return, label %for.cond.preheader

for.cond.preheader:                               ; preds = %if.then
  %cmp593 = icmp ult i32 %i2.2, %retval.0.i26
  br i1 %cmp593, label %for.body.preheader, label %return

for.body.preheader:                               ; preds = %for.cond.preheader
  %6 = zext i32 %i2.2 to i64
  br label %for.body

for.body:                                         ; preds = %for.body.preheader, %_ZN6vectorIP4exprLb0EjE9push_backERKS1_.exit
  %indvars.iv101 = phi i64 [ %6, %for.body.preheader ], [ %indvars.iv.next102, %_ZN6vectorIP4exprLb0EjE9push_backERKS1_.exit ]
  %7 = load ptr, ptr %m_vars2, align 8
  %arrayidx.i28 = getelementptr inbounds ptr, ptr %7, i64 %indvars.iv101
  %8 = load ptr, ptr %rest2, align 8
  %cmp.i29 = icmp eq ptr %8, null
  br i1 %cmp.i29, label %if.then.i, label %lor.lhs.false.i

lor.lhs.false.i:                                  ; preds = %for.body
  %arrayidx.i30 = getelementptr inbounds i8, ptr %8, i64 -4
  %9 = load i32, ptr %arrayidx.i30, align 4
  %arrayidx4.i = getelementptr inbounds i8, ptr %8, i64 -8
  %10 = load i32, ptr %arrayidx4.i, align 4
  %cmp5.i = icmp eq i32 %9, %10
  br i1 %cmp5.i, label %if.then.i, label %_ZN6vectorIP4exprLb0EjE9push_backERKS1_.exit

if.then.i:                                        ; preds = %lor.lhs.false.i, %for.body
  tail call void @_ZN6vectorIP4exprLb0EjE13expand_vectorEv(ptr noundef nonnull align 8 dereferenceable(8) %rest2)
  %.pre.i = load ptr, ptr %rest2, align 8
  %arrayidx8.phi.trans.insert.i = getelementptr inbounds i8, ptr %.pre.i, i64 -4
  %.pre1.i = load i32, ptr %arrayidx8.phi.trans.insert.i, align 4
  br label %_ZN6vectorIP4exprLb0EjE9push_backERKS1_.exit

_ZN6vectorIP4exprLb0EjE9push_backERKS1_.exit:     ; preds = %lor.lhs.false.i, %if.then.i
  %11 = phi i32 [ %.pre1.i, %if.then.i ], [ %9, %lor.lhs.false.i ]
  %12 = phi ptr [ %.pre.i, %if.then.i ], [ %8, %lor.lhs.false.i ]
  %idx.ext.i = zext i32 %11 to i64
  %add.ptr.i = getelementptr inbounds ptr, ptr %12, i64 %idx.ext.i
  %13 = load ptr, ptr %arrayidx.i28, align 8
  store ptr %13, ptr %add.ptr.i, align 8
  %14 = load ptr, ptr %rest2, align 8
  %arrayidx10.i = getelementptr inbounds i8, ptr %14, i64 -4
  %15 = load i32, ptr %arrayidx10.i, align 4
  %inc.i = add i32 %15, 1
  store i32 %inc.i, ptr %arrayidx10.i, align 4
  %indvars.iv.next102 = add nuw nsw i64 %indvars.iv101, 1
  %lftr.wideiv104 = trunc i64 %indvars.iv.next102 to i32
  %exitcond105.not = icmp eq i32 %retval.0.i26, %lftr.wideiv104
  br i1 %exitcond105.not, label %return, label %for.body, !llvm.loop !41

if.end9:                                          ; preds = %if.end9.lr.ph, %if.end41
  %found_M.091 = phi i8 [ 0, %if.end9.lr.ph ], [ %found_M.1, %if.end41 ]
  %i2.090 = phi i32 [ 0, %if.end9.lr.ph ], [ %i2.2, %if.end41 ]
  %i1.089 = phi i32 [ 0, %if.end9.lr.ph ], [ %i1.2, %if.end41 ]
  %cmp10.not = icmp ult i32 %i2.090, %retval.0.i26
  br i1 %cmp10.not, label %if.end24, label %if.then11

if.then11:                                        ; preds = %if.end9
  %16 = and i8 %found_M.091, 1
  %tobool12.not = icmp eq i8 %16, 0
  br i1 %tobool12.not, label %return, label %for.cond14.preheader

for.cond14.preheader:                             ; preds = %if.then11
  %cmp1595 = icmp ult i32 %i1.089, %retval.0.i
  br i1 %cmp1595, label %for.body16.preheader, label %return

for.body16.preheader:                             ; preds = %for.cond14.preheader
  %17 = zext i32 %i1.089 to i64
  br label %for.body16

for.body16:                                       ; preds = %for.body16.preheader, %_ZN6vectorIP4exprLb0EjE9push_backERKS1_.exit48
  %indvars.iv = phi i64 [ %17, %for.body16.preheader ], [ %indvars.iv.next, %_ZN6vectorIP4exprLb0EjE9push_backERKS1_.exit48 ]
  %18 = load ptr, ptr %m_vars, align 8
  %arrayidx.i33 = getelementptr inbounds ptr, ptr %18, i64 %indvars.iv
  %19 = load ptr, ptr %rest1, align 8
  %cmp.i34 = icmp eq ptr %19, null
  br i1 %cmp.i34, label %if.then.i44, label %lor.lhs.false.i35

lor.lhs.false.i35:                                ; preds = %for.body16
  %arrayidx.i36 = getelementptr inbounds i8, ptr %19, i64 -4
  %20 = load i32, ptr %arrayidx.i36, align 4
  %arrayidx4.i37 = getelementptr inbounds i8, ptr %19, i64 -8
  %21 = load i32, ptr %arrayidx4.i37, align 4
  %cmp5.i38 = icmp eq i32 %20, %21
  br i1 %cmp5.i38, label %if.then.i44, label %_ZN6vectorIP4exprLb0EjE9push_backERKS1_.exit48

if.then.i44:                                      ; preds = %lor.lhs.false.i35, %for.body16
  tail call void @_ZN6vectorIP4exprLb0EjE13expand_vectorEv(ptr noundef nonnull align 8 dereferenceable(8) %rest1)
  %.pre.i45 = load ptr, ptr %rest1, align 8
  %arrayidx8.phi.trans.insert.i46 = getelementptr inbounds i8, ptr %.pre.i45, i64 -4
  %.pre1.i47 = load i32, ptr %arrayidx8.phi.trans.insert.i46, align 4
  br label %_ZN6vectorIP4exprLb0EjE9push_backERKS1_.exit48

_ZN6vectorIP4exprLb0EjE9push_backERKS1_.exit48:   ; preds = %lor.lhs.false.i35, %if.then.i44
  %22 = phi i32 [ %.pre1.i47, %if.then.i44 ], [ %20, %lor.lhs.false.i35 ]
  %23 = phi ptr [ %.pre.i45, %if.then.i44 ], [ %19, %lor.lhs.false.i35 ]
  %idx.ext.i40 = zext i32 %22 to i64
  %add.ptr.i41 = getelementptr inbounds ptr, ptr %23, i64 %idx.ext.i40
  %24 = load ptr, ptr %arrayidx.i33, align 8
  store ptr %24, ptr %add.ptr.i41, align 8
  %25 = load ptr, ptr %rest1, align 8
  %arrayidx10.i42 = getelementptr inbounds i8, ptr %25, i64 -4
  %26 = load i32, ptr %arrayidx10.i42, align 4
  %inc.i43 = add i32 %26, 1
  store i32 %inc.i43, ptr %arrayidx10.i42, align 4
  %indvars.iv.next = add nuw nsw i64 %indvars.iv, 1
  %lftr.wideiv = trunc i64 %indvars.iv.next to i32
  %exitcond.not = icmp eq i32 %retval.0.i, %lftr.wideiv
  br i1 %exitcond.not, label %return, label %for.body16, !llvm.loop !42

if.end24:                                         ; preds = %if.end9
  %27 = load ptr, ptr %m_vars, align 8
  %idxprom.i49 = zext i32 %i1.089 to i64
  %arrayidx.i50 = getelementptr inbounds ptr, ptr %27, i64 %idxprom.i49
  %28 = load ptr, ptr %arrayidx.i50, align 8
  %29 = load ptr, ptr %m_vars2, align 8
  %idxprom.i51 = zext i32 %i2.090 to i64
  %arrayidx.i52 = getelementptr inbounds ptr, ptr %29, i64 %idxprom.i51
  %30 = load ptr, ptr %arrayidx.i52, align 8
  %cmp29 = icmp eq ptr %28, %30
  br i1 %cmp29, label %if.then30, label %if.else

if.then30:                                        ; preds = %if.end24
  %inc31 = add nuw i32 %i1.089, 1
  %inc32 = add nuw i32 %i2.090, 1
  br label %if.end41

if.else:                                          ; preds = %if.end24
  %call33 = tail call noundef zeroext i1 @_ZNK7grobner6var_ltclEP4exprS2_(ptr noundef nonnull align 8 dereferenceable(8) %m_var_lt, ptr noundef %30, ptr noundef %28)
  br i1 %call33, label %if.then34, label %if.else37

if.then34:                                        ; preds = %if.else
  %inc35 = add nuw i32 %i2.090, 1
  %31 = load ptr, ptr %rest2, align 8
  %cmp.i53 = icmp eq ptr %31, null
  br i1 %cmp.i53, label %if.then.i63, label %lor.lhs.false.i54

lor.lhs.false.i54:                                ; preds = %if.then34
  %arrayidx.i55 = getelementptr inbounds i8, ptr %31, i64 -4
  %32 = load i32, ptr %arrayidx.i55, align 4
  %arrayidx4.i56 = getelementptr inbounds i8, ptr %31, i64 -8
  %33 = load i32, ptr %arrayidx4.i56, align 4
  %cmp5.i57 = icmp eq i32 %32, %33
  br i1 %cmp5.i57, label %if.then.i63, label %_ZN6vectorIP4exprLb0EjE9push_backERKS1_.exit67

if.then.i63:                                      ; preds = %lor.lhs.false.i54, %if.then34
  tail call void @_ZN6vectorIP4exprLb0EjE13expand_vectorEv(ptr noundef nonnull align 8 dereferenceable(8) %rest2)
  %.pre.i64 = load ptr, ptr %rest2, align 8
  %arrayidx8.phi.trans.insert.i65 = getelementptr inbounds i8, ptr %.pre.i64, i64 -4
  %.pre1.i66 = load i32, ptr %arrayidx8.phi.trans.insert.i65, align 4
  br label %_ZN6vectorIP4exprLb0EjE9push_backERKS1_.exit67

_ZN6vectorIP4exprLb0EjE9push_backERKS1_.exit67:   ; preds = %lor.lhs.false.i54, %if.then.i63
  %34 = phi i32 [ %.pre1.i66, %if.then.i63 ], [ %32, %lor.lhs.false.i54 ]
  %35 = phi ptr [ %.pre.i64, %if.then.i63 ], [ %31, %lor.lhs.false.i54 ]
  %idx.ext.i59 = zext i32 %34 to i64
  %add.ptr.i60 = getelementptr inbounds ptr, ptr %35, i64 %idx.ext.i59
  store ptr %30, ptr %add.ptr.i60, align 8
  %36 = load ptr, ptr %rest2, align 8
  %arrayidx10.i61 = getelementptr inbounds i8, ptr %36, i64 -4
  %37 = load i32, ptr %arrayidx10.i61, align 4
  %inc.i62 = add i32 %37, 1
  store i32 %inc.i62, ptr %arrayidx10.i61, align 4
  br label %if.end41

if.else37:                                        ; preds = %if.else
  %inc38 = add nuw i32 %i1.089, 1
  %38 = load ptr, ptr %rest1, align 8
  %cmp.i68 = icmp eq ptr %38, null
  br i1 %cmp.i68, label %if.then.i78, label %lor.lhs.false.i69

lor.lhs.false.i69:                                ; preds = %if.else37
  %arrayidx.i70 = getelementptr inbounds i8, ptr %38, i64 -4
  %39 = load i32, ptr %arrayidx.i70, align 4
  %arrayidx4.i71 = getelementptr inbounds i8, ptr %38, i64 -8
  %40 = load i32, ptr %arrayidx4.i71, align 4
  %cmp5.i72 = icmp eq i32 %39, %40
  br i1 %cmp5.i72, label %if.then.i78, label %_ZN6vectorIP4exprLb0EjE9push_backERKS1_.exit82

if.then.i78:                                      ; preds = %lor.lhs.false.i69, %if.else37
  tail call void @_ZN6vectorIP4exprLb0EjE13expand_vectorEv(ptr noundef nonnull align 8 dereferenceable(8) %rest1)
  %.pre.i79 = load ptr, ptr %rest1, align 8
  %arrayidx8.phi.trans.insert.i80 = getelementptr inbounds i8, ptr %.pre.i79, i64 -4
  %.pre1.i81 = load i32, ptr %arrayidx8.phi.trans.insert.i80, align 4
  br label %_ZN6vectorIP4exprLb0EjE9push_backERKS1_.exit82

_ZN6vectorIP4exprLb0EjE9push_backERKS1_.exit82:   ; preds = %lor.lhs.false.i69, %if.then.i78
  %41 = phi i32 [ %.pre1.i81, %if.then.i78 ], [ %39, %lor.lhs.false.i69 ]
  %42 = phi ptr [ %.pre.i79, %if.then.i78 ], [ %38, %lor.lhs.false.i69 ]
  %idx.ext.i74 = zext i32 %41 to i64
  %add.ptr.i75 = getelementptr inbounds ptr, ptr %42, i64 %idx.ext.i74
  store ptr %28, ptr %add.ptr.i75, align 8
  %43 = load ptr, ptr %rest1, align 8
  %arrayidx10.i76 = getelementptr inbounds i8, ptr %43, i64 -4
  %44 = load i32, ptr %arrayidx10.i76, align 4
  %inc.i77 = add i32 %44, 1
  store i32 %inc.i77, ptr %arrayidx10.i76, align 4
  br label %if.end41

if.end41:                                         ; preds = %_ZN6vectorIP4exprLb0EjE9push_backERKS1_.exit67, %_ZN6vectorIP4exprLb0EjE9push_backERKS1_.exit82, %if.then30
  %i1.2 = phi i32 [ %inc31, %if.then30 ], [ %i1.089, %_ZN6vectorIP4exprLb0EjE9push_backERKS1_.exit67 ], [ %inc38, %_ZN6vectorIP4exprLb0EjE9push_backERKS1_.exit82 ]
  %i2.2 = phi i32 [ %inc32, %if.then30 ], [ %inc35, %_ZN6vectorIP4exprLb0EjE9push_backERKS1_.exit67 ], [ %i2.090, %_ZN6vectorIP4exprLb0EjE9push_backERKS1_.exit82 ]
  %found_M.1 = phi i8 [ 1, %if.then30 ], [ %found_M.091, %_ZN6vectorIP4exprLb0EjE9push_backERKS1_.exit67 ], [ %found_M.091, %_ZN6vectorIP4exprLb0EjE9push_backERKS1_.exit82 ]
  %cmp.not = icmp ult i32 %i1.2, %retval.0.i
  br i1 %cmp.not, label %if.end9, label %if.then, !llvm.loop !43

return:                                           ; preds = %_ZN6vectorIP4exprLb0EjE9push_backERKS1_.exit48, %_ZN6vectorIP4exprLb0EjE9push_backERKS1_.exit, %_ZNK6vectorIP4exprLb0EjE4sizeEv.exit27, %for.cond.preheader, %for.cond14.preheader, %if.then11, %if.then
  %retval.0 = phi i1 [ false, %if.then ], [ false, %if.then11 ], [ true, %for.cond14.preheader ], [ true, %for.cond.preheader ], [ false, %_ZNK6vectorIP4exprLb0EjE4sizeEv.exit27 ], [ true, %_ZN6vectorIP4exprLb0EjE9push_backERKS1_.exit ], [ true, %_ZN6vectorIP4exprLb0EjE9push_backERKS1_.exit48 ]
  ret i1 %retval.0
}